target datalayout = "e-m:e-p270:32:32-p271:32:32-p272:64:64-i64:64-i128:128-f80:128-n8:16:32:64-S128"
target triple = "x86_64-pc-linux-gnu"

%struct.ForEachState = type { ptr, i32 }
%struct.List = type { i32, i32, i32, ptr, [0 x %union.ListCell] }
%union.ListCell = type { ptr }
%struct.IndexOptInfo = type { i32, i32, i32, ptr, i32, double, i32, i32, i32, ptr, ptr, ptr, ptr, ptr, ptr, ptr, ptr, ptr, i32, ptr, ptr, ptr, ptr, i8, i8, i8, i8, i8, i8, i8, i8, i8, i8, i8, i8, i8, ptr }
%struct.Path = type { i32, i32, ptr, ptr, ptr, i8, i8, i32, double, i32, double, double, ptr }
%struct.IndexPath = type { %struct.Path, ptr, ptr, ptr, ptr, i32, double, double }

; Function Attrs: nounwind uwtable
define internal void @get_index_paths(ptr noundef %0, ptr noundef %1, ptr noundef %2, ptr noundef %3, ptr noundef %4) #0 {
  %6 = alloca ptr, align 8
  %7 = alloca ptr, align 8
  %8 = alloca ptr, align 8
  %9 = alloca ptr, align 8
  %10 = alloca ptr, align 8
  %11 = alloca ptr, align 8
  %12 = alloca i8, align 1
  %13 = alloca ptr, align 8
  %14 = alloca %struct.ForEachState, align 8
  %15 = alloca ptr, align 8
  store ptr %0, ptr %6, align 8
  store ptr %1, ptr %7, align 8
  store ptr %2, ptr %8, align 8
  store ptr %3, ptr %9, align 8
  store ptr %4, ptr %10, align 8
  call void @llvm.lifetime.start.p0(i64 8, ptr %11) #7
  call void @llvm.lifetime.start.p0(i64 1, ptr %12) #7
  store i8 0, ptr %12, align 1
  call void @llvm.lifetime.start.p0(i64 8, ptr %13) #7
  %16 = load ptr, ptr %6, align 8
  %17 = load ptr, ptr %7, align 8
  %18 = load ptr, ptr %8, align 8
  %19 = load ptr, ptr %9, align 8
  %20 = load ptr, ptr %8, align 8
  %21 = getelementptr inbounds nuw %struct.IndexOptInfo, ptr %20, i32 0, i32 23
  %22 = load i8, ptr %21, align 8, !range !4, !noundef !5
  %23 = trunc i8 %22 to i1
  %24 = call ptr @build_index_paths(ptr noundef %16, ptr noundef %17, ptr noundef %18, ptr noundef %19, i1 noundef zeroext %23, i32 noundef 2, ptr noundef %12)
  store ptr %24, ptr %11, align 8
  call void @llvm.lifetime.start.p0(i64 16, ptr %14) #7
  %25 = getelementptr inbounds nuw %struct.ForEachState, ptr %14, i32 0, i32 0
  %26 = load ptr, ptr %11, align 8
  store ptr %26, ptr %25, align 8
  %27 = getelementptr inbounds nuw %struct.ForEachState, ptr %14, i32 0, i32 1
  store i32 0, ptr %27, align 8
  %28 = getelementptr i8, ptr %14, i64 12
  call void @llvm.memset.p0.i64(ptr align 4 %28, i8 0, i64 4, i1 false)
  br label %29

29:                                               ; preds = %88, %5
  %30 = getelementptr inbounds nuw %struct.ForEachState, ptr %14, i32 0, i32 0
  %31 = load ptr, ptr %30, align 8
  %32 = icmp ne ptr %31, null
  br i1 %32, label %33, label %50

33:                                               ; preds = %29
  %34 = getelementptr inbounds nuw %struct.ForEachState, ptr %14, i32 0, i32 1
  %35 = load i32, ptr %34, align 8
  %36 = getelementptr inbounds nuw %struct.ForEachState, ptr %14, i32 0, i32 0
  %37 = load ptr, ptr %36, align 8
  %38 = getelementptr inbounds nuw %struct.List, ptr %37, i32 0, i32 1
  %39 = load i32, ptr %38, align 4
  %40 = icmp slt i32 %35, %39
  br i1 %40, label %41, label %50

41:                                               ; preds = %33
  %42 = getelementptr inbounds nuw %struct.ForEachState, ptr %14, i32 0, i32 0
  %43 = load ptr, ptr %42, align 8
  %44 = getelementptr inbounds nuw %struct.List, ptr %43, i32 0, i32 3
  %45 = load ptr, ptr %44, align 8
  %46 = getelementptr inbounds nuw %struct.ForEachState, ptr %14, i32 0, i32 1
  %47 = load i32, ptr %46, align 8
  %48 = sext i32 %47 to i64
  %49 = getelementptr inbounds %union.ListCell, ptr %45, i64 %48
  store ptr %49, ptr %13, align 8
  br label %51

50:                                               ; preds = %33, %29
  store ptr null, ptr %13, align 8
  br label %51

51:                                               ; preds = %50, %41
  %52 = phi i32 [ 1, %41 ], [ 0, %50 ]
  %53 = icmp ne i32 %52, 0
  br i1 %53, label %55, label %54

54:                                               ; preds = %51
  call void @llvm.lifetime.end.p0(i64 16, ptr %14) #7
  br label %92

55:                                               ; preds = %51
  call void @llvm.lifetime.start.p0(i64 8, ptr %15) #7
  %56 = load ptr, ptr %13, align 8
  %57 = load ptr, ptr %56, align 8
  store ptr %57, ptr %15, align 8
  %58 = load ptr, ptr %8, align 8
  %59 = getelementptr inbounds nuw %struct.IndexOptInfo, ptr %58, i32 0, i32 32
  %60 = load i8, ptr %59, align 1, !range !4, !noundef !5
  %61 = trunc i8 %60 to i1
  br i1 %61, label %62, label %65

62:                                               ; preds = %55
  %63 = load ptr, ptr %7, align 8
  %64 = load ptr, ptr %15, align 8
  call void @add_path(ptr noundef %63, ptr noundef %64)
  br label %65

65:                                               ; preds = %62, %55
  %66 = load ptr, ptr %8, align 8
  %67 = getelementptr inbounds nuw %struct.IndexOptInfo, ptr %66, i32 0, i32 33
  %68 = load i8, ptr %67, align 2, !range !4, !noundef !5
  %69 = trunc i8 %68 to i1
  br i1 %69, label %70, label %87

70:                                               ; preds = %65
  %71 = load ptr, ptr %15, align 8
  %72 = getelementptr inbounds nuw %struct.IndexPath, ptr %71, i32 0, i32 0
  %73 = getelementptr inbounds nuw %struct.Path, ptr %72, i32 0, i32 12
  %74 = load ptr, ptr %73, align 8
  %75 = icmp eq ptr %74, null
  br i1 %75, label %81, label %76

76:                                               ; preds = %70
  %77 = load ptr, ptr %15, align 8
  %78 = getelementptr inbounds nuw %struct.IndexPath, ptr %77, i32 0, i32 7
  %79 = load double, ptr %78, align 8
  %80 = fcmp olt double %79, 1.000000e+00
  br i1 %80, label %81, label %87

81:                                               ; preds = %76, %70
  %82 = load ptr, ptr %10, align 8
  %83 = load ptr, ptr %82, align 8
  %84 = load ptr, ptr %15, align 8
  %85 = call ptr @lappend(ptr noundef %83, ptr noundef %84)
  %86 = load ptr, ptr %10, align 8
  store ptr %85, ptr %86, align 8
  br label %87

87:                                               ; preds = %81, %76, %65
  call void @llvm.lifetime.end.p0(i64 8, ptr %15) #7
  br label %88

88:                                               ; preds = %87
  %89 = getelementptr inbounds nuw %struct.ForEachState, ptr %14, i32 0, i32 1
  %90 = load i32, ptr %89, align 8
  %91 = add i32 %90, 1
  store i32 %91, ptr %89, align 8
  br label %29, !llvm.loop !14

92:                                               ; preds = %54
  %93 = load i8, ptr %12, align 1, !range !4, !noundef !5
  %94 = trunc i8 %93 to i1
  br i1 %94, label %95, label %106

95:                                               ; preds = %92
  %96 = load ptr, ptr %6, align 8
  %97 = load ptr, ptr %7, align 8
  %98 = load ptr, ptr %8, align 8
  %99 = load ptr, ptr %9, align 8
  %100 = call ptr @build_index_paths(ptr noundef %96, ptr noundef %97, ptr noundef %98, ptr noundef %99, i1 noundef zeroext false, i32 noundef 1, ptr noundef null)
  store ptr %100, ptr %11, align 8
  %101 = load ptr, ptr %10, align 8
  %102 = load ptr, ptr %101, align 8
  %103 = load ptr, ptr %11, align 8
  %104 = call ptr @list_concat(ptr noundef %102, ptr noundef %103)
  %105 = load ptr, ptr %10, align 8
  store ptr %104, ptr %105, align 8
  br label %106

106:                                              ; preds = %95, %92
  call void @llvm.lifetime.end.p0(i64 8, ptr %13) #7
  call void @llvm.lifetime.end.p0(i64 1, ptr %12) #7
  call void @llvm.lifetime.end.p0(i64 8, ptr %11) #7
  ret void
}