; Function Attrs: nounwind uwtable
define internal fastcc void @get_index_paths(ptr noundef %0, ptr noundef %1, ptr noundef %2, ptr noundef nonnull readonly captures(none) %3, ptr noundef nonnull captures(none) %4) unnamed_addr #0 {
  %6 = alloca i8, align 1
  call void @llvm.lifetime.start.p0(i64 1, ptr nonnull %6) #8
  store i8 0, ptr %6, align 1
  %7 = getelementptr inbounds nuw i8, ptr %2, i64 168
  %8 = load i8, ptr %7, align 8, !range !4, !noundef !5
  %9 = trunc nuw i8 %8 to i1
  %10 = call fastcc ptr @build_index_paths(ptr noundef %0, ptr noundef %1, ptr noundef %2, ptr noundef %3, i1 noundef zeroext %9, i32 noundef 2, ptr noundef nonnull %6)
  %11 = getelementptr inbounds nuw i8, ptr %10, i64 4
  %.not = icmp eq ptr %10, null
  br i1 %.not, label %._crit_edge, label %.lr.ph

.lr.ph:                                           ; preds = %5
  %12 = getelementptr inbounds nuw i8, ptr %10, i64 16
  %13 = getelementptr inbounds nuw i8, ptr %2, i64 177
  %14 = getelementptr inbounds nuw i8, ptr %2, i64 178
  %15 = load i32, ptr %11, align 4
  %16 = icmp sgt i32 %15, 0
  br i1 %16, label %.lr.ph34, label %._crit_edge

._crit_edge:                                      ; preds = %39, %.lr.ph, %5
  %17 = load i8, ptr %6, align 1, !range !4, !noundef !5
  %18 = trunc nuw i8 %17 to i1
  br i1 %18, label %43, label %47

.lr.ph34:                                         ; preds = %.lr.ph, %39
  %indvars.iv = phi i64 [ %indvars.iv.next, %39 ], [ 0, %.lr.ph ]
  %19 = load ptr, ptr %12, align 8
  %20 = getelementptr inbounds nuw %union.ListCell, ptr %19, i64 %indvars.iv
  %21 = load ptr, ptr %20, align 8
  %22 = load i8, ptr %13, align 1, !range !4, !noundef !5
  %23 = trunc nuw i8 %22 to i1
  br i1 %23, label %24, label %25

24:                                               ; preds = %.lr.ph34
  call void @add_path(ptr noundef %1, ptr noundef %21) #8
  br label %25

25:                                               ; preds = %24, %.lr.ph34
  %26 = load i8, ptr %14, align 2, !range !4, !noundef !5
  %27 = trunc nuw i8 %26 to i1
  br i1 %27, label %28, label %39

28:                                               ; preds = %25
  %29 = getelementptr inbounds nuw i8, ptr %21, i64 72
  %30 = load ptr, ptr %29, align 8
  %31 = icmp eq ptr %30, null
  br i1 %31, label %36, label %32

32:                                               ; preds = %28
  %33 = getelementptr inbounds nuw i8, ptr %21, i64 128
  %34 = load double, ptr %33, align 8
  %35 = fcmp olt double %34, 1.000000e+00
  br i1 %35, label %36, label %39

36:                                               ; preds = %32, %28
  %37 = load ptr, ptr %4, align 8
  %38 = call ptr @lappend(ptr noundef %37, ptr noundef nonnull %21) #8
  store ptr %38, ptr %4, align 8
  br label %39

39:                                               ; preds = %36, %32, %25
  %indvars.iv.next = add nuw nsw i64 %indvars.iv, 1
  %40 = load i32, ptr %11, align 4
  %41 = sext i32 %40 to i64
  %42 = icmp slt i64 %indvars.iv.next, %41
  br i1 %42, label %.lr.ph34, label %._crit_edge

43:                                               ; preds = %._crit_edge
  %44 = call fastcc ptr @build_index_paths(ptr noundef %0, ptr noundef %1, ptr noundef nonnull %2, ptr noundef %3, i1 noundef zeroext false, i32 noundef 1, ptr noundef null)
  %45 = load ptr, ptr %4, align 8
  %46 = call ptr @list_concat(ptr noundef %45, ptr noundef %44) #8
  store ptr %46, ptr %4, align 8
  br label %47

47:                                               ; preds = %43, %._crit_edge
  call void @llvm.lifetime.end.p0(i64 1, ptr nonnull %6) #8
  ret void
}